target datalayout = "e-m:e-p270:32:32-p271:32:32-p272:64:64-i64:64-i128:128-f80:128-n8:16:32:64-S128"
target triple = "x86_64-pc-linux-gnu"

@H5T_init_g = external global i8, align 1
@H5_libterm_g = external global i8, align 1

; Function Attrs: nounwind uwtable
define zeroext i1 @H5T__bit_dec(ptr noundef %0, i64 noundef %1, i64 noundef %2) #0 {
  %4 = alloca ptr, align 8
  %5 = alloca i64, align 8
  %6 = alloca i64, align 8
  %7 = alloca i64, align 8
  %8 = alloca i64, align 8
  %9 = alloca i8, align 1
  %10 = alloca i32, align 4
  store ptr %0, ptr %4, align 8, !tbaa !3
  store i64 %1, ptr %5, align 8, !tbaa !8
  store i64 %2, ptr %6, align 8, !tbaa !8
  call void @llvm.lifetime.start.p0(i64 8, ptr %7) #4
  %11 = load i64, ptr %5, align 8, !tbaa !8
  %12 = udiv i64 %11, 8
  store i64 %12, ptr %7, align 8, !tbaa !8
  call void @llvm.lifetime.start.p0(i64 8, ptr %8) #4
  %13 = load i64, ptr %5, align 8, !tbaa !8
  %14 = urem i64 %13, 8
  store i64 %14, ptr %8, align 8, !tbaa !8
  call void @llvm.lifetime.start.p0(i64 1, ptr %9) #4
  call void @llvm.lifetime.start.p0(i64 4, ptr %10) #4
  store i32 0, ptr %10, align 4, !tbaa !21
  %15 = load i8, ptr @H5T_init_g, align 1, !tbaa !10, !range !12, !noundef !13
  %16 = trunc i8 %15 to i1
  br i1 %16, label %21, label %17

17:                                               ; preds = %3
  %18 = load i8, ptr @H5_libterm_g, align 1, !tbaa !10, !range !12, !noundef !13
  %19 = trunc i8 %18 to i1
  %20 = xor i1 %19, true
  br label %21

21:                                               ; preds = %17, %3
  %22 = phi i1 [ true, %3 ], [ %20, %17 ]
  %23 = xor i1 %22, true
  %24 = xor i1 %23, true
  %25 = zext i1 %24 to i32
  %26 = sext i32 %25 to i64
  %27 = call i64 @llvm.expect.i64(i64 %26, i64 1)
  %28 = icmp ne i64 %27, 0
  br i1 %28, label %29, label %193

29:                                               ; preds = %21
  %30 = load i64, ptr %6, align 8, !tbaa !8
  %31 = load i64, ptr %5, align 8, !tbaa !8
  %32 = add i64 %30, %31
  %33 = sub i64 %32, 1
  %34 = udiv i64 %33, 8
  %35 = load i64, ptr %7, align 8, !tbaa !8
  %36 = icmp ugt i64 %34, %35
  br i1 %36, label %37, label %139

37:                                               ; preds = %29
  %38 = load ptr, ptr %4, align 8, !tbaa !3
  %39 = load i64, ptr %7, align 8, !tbaa !8
  %40 = getelementptr inbounds nuw i8, ptr %38, i64 %39
  %41 = load i8, ptr %40, align 1, !tbaa !14
  %42 = zext i8 %41 to i32
  %43 = load i64, ptr %8, align 8, !tbaa !8
  %44 = trunc i64 %43 to i32
  %45 = ashr i32 %42, %44
  %46 = icmp ne i32 %45, 0
  br i1 %46, label %48, label %47

47:                                               ; preds = %37
  store i32 1, ptr %10, align 4, !tbaa !21
  br label %48

48:                                               ; preds = %47, %37
  %49 = load ptr, ptr %4, align 8, !tbaa !3
  %50 = load i64, ptr %7, align 8, !tbaa !8
  %51 = getelementptr inbounds nuw i8, ptr %49, i64 %50
  %52 = load i8, ptr %51, align 1, !tbaa !14
  %53 = zext i8 %52 to i32
  %54 = load i64, ptr %8, align 8, !tbaa !8
  %55 = trunc i64 %54 to i32
  %56 = shl i32 1, %55
  %57 = sub nsw i32 %53, %56
  %58 = trunc i32 %57 to i8
  %59 = load ptr, ptr %4, align 8, !tbaa !3
  %60 = load i64, ptr %7, align 8, !tbaa !8
  %61 = getelementptr inbounds nuw i8, ptr %59, i64 %60
  store i8 %58, ptr %61, align 1, !tbaa !14
  %62 = load i64, ptr %7, align 8, !tbaa !8
  %63 = add i64 %62, 1
  store i64 %63, ptr %7, align 8, !tbaa !8
  %64 = load i64, ptr %8, align 8, !tbaa !8
  %65 = sub i64 8, %64
  %66 = load i64, ptr %6, align 8, !tbaa !8
  %67 = sub i64 %66, %65
  store i64 %67, ptr %6, align 8, !tbaa !8
  br label %68

68:                                               ; preds = %83, %48
  %69 = load i32, ptr %10, align 4, !tbaa !21
  %70 = icmp ne i32 %69, 0
  br i1 %70, label %71, label %74

71:                                               ; preds = %68
  %72 = load i64, ptr %6, align 8, !tbaa !8
  %73 = icmp uge i64 %72, 8
  br label %74

74:                                               ; preds = %71, %68
  %75 = phi i1 [ false, %68 ], [ %73, %71 ]
  br i1 %75, label %76, label %93

76:                                               ; preds = %74
  %77 = load ptr, ptr %4, align 8, !tbaa !3
  %78 = load i64, ptr %7, align 8, !tbaa !8
  %79 = getelementptr inbounds nuw i8, ptr %77, i64 %78
  %80 = load i8, ptr %79, align 1, !tbaa !14
  %81 = icmp ne i8 %80, 0
  br i1 %81, label %82, label %83

82:                                               ; preds = %76
  store i32 0, ptr %10, align 4, !tbaa !21
  br label %83

83:                                               ; preds = %82, %76
  %84 = load ptr, ptr %4, align 8, !tbaa !3
  %85 = load i64, ptr %7, align 8, !tbaa !8
  %86 = getelementptr inbounds nuw i8, ptr %84, i64 %85
  %87 = load i8, ptr %86, align 1, !tbaa !14
  %88 = add i8 %87, -1
  store i8 %88, ptr %86, align 1, !tbaa !14
  %89 = load i64, ptr %7, align 8, !tbaa !8
  %90 = add i64 %89, 1
  store i64 %90, ptr %7, align 8, !tbaa !8
  %91 = load i64, ptr %6, align 8, !tbaa !8
  %92 = sub i64 %91, 8
  store i64 %92, ptr %6, align 8, !tbaa !8
  br label %68, !llvm.loop !35

93:                                               ; preds = %74
  %94 = load i32, ptr %10, align 4, !tbaa !21
  %95 = icmp ne i32 %94, 0
  br i1 %95, label %96, label %138

96:                                               ; preds = %93
  %97 = load i64, ptr %6, align 8, !tbaa !8
  %98 = icmp ugt i64 %97, 0
  br i1 %98, label %99, label %138

99:                                               ; preds = %96
  %100 = load ptr, ptr %4, align 8, !tbaa !3
  %101 = load i64, ptr %7, align 8, !tbaa !8
  %102 = getelementptr inbounds nuw i8, ptr %100, i64 %101
  %103 = load i8, ptr %102, align 1, !tbaa !14
  store i8 %103, ptr %9, align 1, !tbaa !14
  %104 = load ptr, ptr %4, align 8, !tbaa !3
  %105 = load i64, ptr %7, align 8, !tbaa !8
  %106 = getelementptr inbounds nuw i8, ptr %104, i64 %105
  %107 = load i8, ptr %106, align 1, !tbaa !14
  %108 = add i8 %107, -1
  store i8 %108, ptr %106, align 1, !tbaa !14
  %109 = load ptr, ptr %4, align 8, !tbaa !3
  %110 = load i64, ptr %7, align 8, !tbaa !8
  %111 = getelementptr inbounds nuw i8, ptr %109, i64 %110
  %112 = load i8, ptr %111, align 1, !tbaa !14
  %113 = zext i8 %112 to i32
  %114 = load i64, ptr %6, align 8, !tbaa !8
  %115 = trunc i64 %114 to i32
  %116 = ashr i32 %113, %115
  %117 = load i8, ptr %9, align 1, !tbaa !14
  %118 = zext i8 %117 to i32
  %119 = load i64, ptr %6, align 8, !tbaa !8
  %120 = trunc i64 %119 to i32
  %121 = ashr i32 %118, %120
  %122 = icmp ne i32 %116, %121
  br i1 %122, label %123, label %137

123:                                              ; preds = %99
  %124 = load ptr, ptr %4, align 8, !tbaa !3
  %125 = load i64, ptr %7, align 8, !tbaa !8
  %126 = getelementptr inbounds nuw i8, ptr %124, i64 %125
  %127 = load i8, ptr %126, align 1, !tbaa !14
  %128 = zext i8 %127 to i32
  %129 = load i64, ptr %6, align 8, !tbaa !8
  %130 = trunc i64 %129 to i32
  %131 = shl i32 1, %130
  %132 = add nsw i32 %128, %131
  %133 = trunc i32 %132 to i8
  %134 = load ptr, ptr %4, align 8, !tbaa !3
  %135 = load i64, ptr %7, align 8, !tbaa !8
  %136 = getelementptr inbounds nuw i8, ptr %134, i64 %135
  store i8 %133, ptr %136, align 1, !tbaa !14
  br label %137

137:                                              ; preds = %123, %99
  br label %138

138:                                              ; preds = %137, %96, %93
  br label %192

139:                                              ; preds = %29
  %140 = load ptr, ptr %4, align 8, !tbaa !3
  %141 = load i64, ptr %7, align 8, !tbaa !8
  %142 = getelementptr inbounds nuw i8, ptr %140, i64 %141
  %143 = load i8, ptr %142, align 1, !tbaa !14
  store i8 %143, ptr %9, align 1, !tbaa !14
  %144 = load ptr, ptr %4, align 8, !tbaa !3
  %145 = load i64, ptr %7, align 8, !tbaa !8
  %146 = getelementptr inbounds nuw i8, ptr %144, i64 %145
  %147 = load i8, ptr %146, align 1, !tbaa !14
  %148 = zext i8 %147 to i32
  %149 = load i64, ptr %8, align 8, !tbaa !8
  %150 = trunc i64 %149 to i32
  %151 = shl i32 1, %150
  %152 = sub nsw i32 %148, %151
  %153 = trunc i32 %152 to i8
  %154 = load ptr, ptr %4, align 8, !tbaa !3
  %155 = load i64, ptr %7, align 8, !tbaa !8
  %156 = getelementptr inbounds nuw i8, ptr %154, i64 %155
  store i8 %153, ptr %156, align 1, !tbaa !14
  %157 = load ptr, ptr %4, align 8, !tbaa !3
  %158 = load i64, ptr %7, align 8, !tbaa !8
  %159 = getelementptr inbounds nuw i8, ptr %157, i64 %158
  %160 = load i8, ptr %159, align 1, !tbaa !14
  %161 = zext i8 %160 to i32
  %162 = load i64, ptr %8, align 8, !tbaa !8
  %163 = load i64, ptr %6, align 8, !tbaa !8
  %164 = add i64 %162, %163
  %165 = trunc i64 %164 to i32
  %166 = ashr i32 %161, %165
  %167 = load i8, ptr %9, align 1, !tbaa !14
  %168 = zext i8 %167 to i32
  %169 = load i64, ptr %8, align 8, !tbaa !8
  %170 = load i64, ptr %6, align 8, !tbaa !8
  %171 = add i64 %169, %170
  %172 = trunc i64 %171 to i32
  %173 = ashr i32 %168, %172
  %174 = icmp ne i32 %166, %173
  br i1 %174, label %175, label %191

175:                                              ; preds = %139
  %176 = load ptr, ptr %4, align 8, !tbaa !3
  %177 = load i64, ptr %7, align 8, !tbaa !8
  %178 = getelementptr inbounds nuw i8, ptr %176, i64 %177
  %179 = load i8, ptr %178, align 1, !tbaa !14
  %180 = zext i8 %179 to i32
  %181 = load i64, ptr %8, align 8, !tbaa !8
  %182 = load i64, ptr %6, align 8, !tbaa !8
  %183 = add i64 %181, %182
  %184 = trunc i64 %183 to i32
  %185 = shl i32 1, %184
  %186 = add nsw i32 %180, %185
  %187 = trunc i32 %186 to i8
  %188 = load ptr, ptr %4, align 8, !tbaa !3
  %189 = load i64, ptr %7, align 8, !tbaa !8
  %190 = getelementptr inbounds nuw i8, ptr %188, i64 %189
  store i8 %187, ptr %190, align 1, !tbaa !14
  store i32 1, ptr %10, align 4, !tbaa !21
  br label %191

191:                                              ; preds = %175, %139
  br label %192

192:                                              ; preds = %191, %138
  br label %193

193:                                              ; preds = %192, %21
  %194 = load i32, ptr %10, align 4, !tbaa !21
  %195 = icmp ne i32 %194, 0
  %196 = select i1 %195, i32 1, i32 0
  %197 = icmp ne i32 %196, 0
  call void @llvm.lifetime.end.p0(i64 4, ptr %10) #4
  call void @llvm.lifetime.end.p0(i64 1, ptr %9) #4
  call void @llvm.lifetime.end.p0(i64 8, ptr %8) #4
  call void @llvm.lifetime.end.p0(i64 8, ptr %7) #4
  ret i1 %197
}