; Function Attrs: nofree norecurse nosync nounwind memory(read, argmem: readwrite, inaccessiblemem: none) uwtable
define zeroext i1 @H5T__bit_dec(ptr noundef captures(none) %0, i64 noundef %1, i64 noundef %2) local_unnamed_addr #0 {
  %4 = lshr i64 %1, 3
  %5 = and i64 %1, 7
  %6 = load i8, ptr @H5T_init_g, align 1, !tbaa !3, !range !7, !noundef !8
  %7 = trunc nuw i8 %6 to i1
  %8 = load i8, ptr @H5_libterm_g, align 1, !range !7
  %9 = trunc nuw i8 %8 to i1
  %10 = xor i1 %9, true
  %11 = select i1 %7, i1 true, i1 %10
  br i1 %11, label %12, label %60, !prof !9

12:                                               ; preds = %3
  %13 = add i64 %1, -1
  %14 = add i64 %13, %2
  %15 = lshr i64 %14, 3
  %16 = icmp samesign ugt i64 %15, %4
  %17 = getelementptr inbounds nuw i8, ptr %0, i64 %4
  %18 = load i8, ptr %17, align 1, !tbaa !10
  %19 = zext i8 %18 to i32
  br i1 %16, label %20, label %48

20:                                               ; preds = %12
  %21 = trunc nuw nsw i64 %5 to i32
  %22 = lshr i32 %19, %21
  %.not65 = icmp eq i32 %22, 0
  %.neg66 = shl nsw i32 -1, %21
  %23 = trunc nsw i32 %.neg66 to i8
  %24 = add i8 %18, %23
  store i8 %24, ptr %17, align 1, !tbaa !10
  %.neg67 = or i64 %1, -8
  %25 = add i64 %.neg67, %2
  %.06271 = add nuw nsw i64 %4, 1
  %26 = icmp ugt i64 %25, 7
  %27 = and i1 %.not65, %26
  br i1 %27, label %.lr.ph, label %._crit_edge

.lr.ph:                                           ; preds = %20, %.lr.ph
  %.06273 = phi i64 [ %.062, %.lr.ph ], [ %.06271, %20 ]
  %.06172 = phi i64 [ %31, %.lr.ph ], [ %25, %20 ]
  %28 = getelementptr inbounds nuw i8, ptr %0, i64 %.06273
  %29 = load i8, ptr %28, align 1, !tbaa !10
  %.not69 = icmp eq i8 %29, 0
  %30 = add i8 %29, -1
  store i8 %30, ptr %28, align 1, !tbaa !10
  %31 = add i64 %.06172, -8
  %.062 = add nuw nsw i64 %.06273, 1
  %32 = icmp ugt i64 %31, 7
  %33 = select i1 %.not69, i1 %32, i1 false
  br i1 %33, label %.lr.ph, label %._crit_edge, !llvm.loop !32

._crit_edge:                                      ; preds = %.lr.ph, %20
  %.061.lcssa = phi i64 [ %25, %20 ], [ %31, %.lr.ph ]
  %.2.in.lcssa = phi i1 [ %.not65, %20 ], [ %.not69, %.lr.ph ]
  %.062.lcssa = phi i64 [ %.06271, %20 ], [ %.062, %.lr.ph ]
  %34 = icmp ne i64 %.061.lcssa, 0
  %or.cond = select i1 %.2.in.lcssa, i1 %34, i1 false
  br i1 %or.cond, label %35, label %60

35:                                               ; preds = %._crit_edge
  %36 = getelementptr inbounds nuw i8, ptr %0, i64 %.062.lcssa
  %37 = load i8, ptr %36, align 1, !tbaa !10
  %38 = add i8 %37, -1
  store i8 %38, ptr %36, align 1, !tbaa !10
  %39 = zext i8 %38 to i32
  %40 = trunc i64 %.061.lcssa to i32
  %41 = lshr i32 %39, %40
  %42 = zext i8 %37 to i32
  %43 = lshr i32 %42, %40
  %.not68 = icmp eq i32 %41, %43
  br i1 %.not68, label %60, label %44

44:                                               ; preds = %35
  %45 = shl nuw i32 1, %40
  %46 = trunc i32 %45 to i8
  %47 = add i8 %38, %46
  store i8 %47, ptr %36, align 1, !tbaa !10
  br label %60

48:                                               ; preds = %12
  %49 = trunc nuw nsw i64 %5 to i8
  %.neg = shl nsw i8 -1, %49
  %50 = add i8 %18, %.neg
  store i8 %50, ptr %17, align 1, !tbaa !10
  %51 = zext i8 %50 to i32
  %52 = add i64 %5, %2
  %53 = trunc i64 %52 to i32
  %54 = lshr i32 %51, %53
  %55 = lshr i32 %19, %53
  %.not = icmp eq i32 %54, %55
  br i1 %.not, label %60, label %56

56:                                               ; preds = %48
  %57 = shl nuw i32 1, %53
  %58 = trunc i32 %57 to i8
  %59 = add i8 %50, %58
  store i8 %59, ptr %17, align 1, !tbaa !10
  br label %60

60:                                               ; preds = %35, %44, %._crit_edge, %56, %48, %3
  %.0 = phi i1 [ true, %44 ], [ true, %35 ], [ %.2.in.lcssa, %._crit_edge ], [ true, %56 ], [ false, %48 ], [ false, %3 ]
  ret i1 %.0
}